; Function Attrs: mustprogress uwtable
define hidden void @hb_font_get_glyph_shape(ptr noundef %0, i32 noundef %1, ptr noundef %2, ptr noundef %3) local_unnamed_addr #1 {
  %5 = getelementptr inbounds i8, ptr %0, i64 144
  %6 = load ptr, ptr %5, align 8
  %7 = getelementptr inbounds i8, ptr %6, i64 168
  %8 = load ptr, ptr %7, align 8
  %9 = getelementptr inbounds i8, ptr %0, i64 152
  %10 = load ptr, ptr %9, align 8
  %11 = getelementptr inbounds i8, ptr %6, i64 16
  %12 = load ptr, ptr %11, align 8
  %.not.i.i = icmp eq ptr %12, null
  br i1 %.not.i.i, label %hb_font_draw_glyph.exit, label %13

13:                                               ; preds = %4
  %14 = getelementptr inbounds i8, ptr %12, i64 136
  %15 = load ptr, ptr %14, align 8
  br label %hb_font_draw_glyph.exit

hb_font_draw_glyph.exit:                          ; preds = %4, %13
  %16 = phi ptr [ %15, %13 ], [ null, %4 ]
  tail call void %8(ptr noundef nonnull %0, ptr noundef %10, i32 noundef %1, ptr noundef %2, ptr noundef %3, ptr noundef %16)
  ret void
}